target datalayout = "e-m:e-p270:32:32-p271:32:32-p272:64:64-i64:64-i128:128-f80:128-n8:16:32:64-S128"
target triple = "x86_64-pc-linux-gnu"

@.str = private unnamed_addr constant [5 x i8] c"TERM\00", align 1
@.str.1 = private unnamed_addr constant [5 x i8] c"dumb\00", align 1
@.str.2 = private unnamed_addr constant [11 x i8] c"GIT_EDITOR\00", align 1
@editor_program = external global ptr, align 8
@.str.3 = private unnamed_addr constant [7 x i8] c"VISUAL\00", align 1
@.str.4 = private unnamed_addr constant [7 x i8] c"EDITOR\00", align 1
@.str.5 = private unnamed_addr constant [3 x i8] c"vi\00", align 1

; Function Attrs: nounwind uwtable
define dso_local i32 @is_terminal_dumb() #0 {
  %1 = alloca ptr, align 8
  call void @llvm.lifetime.start.p0(i64 8, ptr %1) #8
  %2 = call ptr @getenv(ptr noundef @.str) #8
  store ptr %2, ptr %1, align 8, !tbaa !4
  %3 = load ptr, ptr %1, align 8, !tbaa !4
  %4 = icmp ne ptr %3, null
  br i1 %4, label %5, label %10

5:                                                ; preds = %0
  %6 = load ptr, ptr %1, align 8, !tbaa !4
  %7 = call i32 @strcmp(ptr noundef %6, ptr noundef @.str.1) #9
  %8 = icmp ne i32 %7, 0
  %9 = xor i1 %8, true
  br label %10

10:                                               ; preds = %5, %0
  %11 = phi i1 [ true, %0 ], [ %9, %5 ]
  %12 = zext i1 %11 to i32
  call void @llvm.lifetime.end.p0(i64 8, ptr %1) #8
  ret i32 %12
}

; Function Attrs: nounwind uwtable
define dso_local ptr @git_editor() #0 {
  %1 = alloca ptr, align 8
  %2 = alloca ptr, align 8
  %3 = alloca i32, align 4
  %4 = alloca i32, align 4
  call void @llvm.lifetime.start.p0(i64 8, ptr %2) #8
  %5 = call ptr @getenv(ptr noundef @.str.2) #8
  store ptr %5, ptr %2, align 8, !tbaa !4
  call void @llvm.lifetime.start.p0(i64 4, ptr %3) #8
  %6 = call i32 @is_terminal_dumb()
  store i32 %6, ptr %3, align 4, !tbaa !9
  %7 = load ptr, ptr %2, align 8, !tbaa !4
  %8 = icmp ne ptr %7, null
  br i1 %8, label %14, label %9

9:                                                ; preds = %0
  %10 = load ptr, ptr @editor_program, align 8, !tbaa !4
  %11 = icmp ne ptr %10, null
  br i1 %11, label %12, label %14

12:                                               ; preds = %9
  %13 = load ptr, ptr @editor_program, align 8, !tbaa !4
  store ptr %13, ptr %2, align 8, !tbaa !4
  br label %14

14:                                               ; preds = %12, %9, %0
  %15 = load ptr, ptr %2, align 8, !tbaa !4
  %16 = icmp ne ptr %15, null
  br i1 %16, label %22, label %17

17:                                               ; preds = %14
  %18 = load i32, ptr %3, align 4, !tbaa !9
  %19 = icmp ne i32 %18, 0
  br i1 %19, label %22, label %20

20:                                               ; preds = %17
  %21 = call ptr @getenv(ptr noundef @.str.3) #8
  store ptr %21, ptr %2, align 8, !tbaa !4
  br label %22

22:                                               ; preds = %20, %17, %14
  %23 = load ptr, ptr %2, align 8, !tbaa !4
  %24 = icmp ne ptr %23, null
  br i1 %24, label %27, label %25

25:                                               ; preds = %22
  %26 = call ptr @getenv(ptr noundef @.str.4) #8
  store ptr %26, ptr %2, align 8, !tbaa !4
  br label %27

27:                                               ; preds = %25, %22
  %28 = load ptr, ptr %2, align 8, !tbaa !4
  %29 = icmp ne ptr %28, null
  br i1 %29, label %34, label %30

30:                                               ; preds = %27
  %31 = load i32, ptr %3, align 4, !tbaa !9
  %32 = icmp ne i32 %31, 0
  br i1 %32, label %33, label %34

33:                                               ; preds = %30
  store ptr null, ptr %1, align 8
  store i32 1, ptr %4, align 4
  br label %40

34:                                               ; preds = %30, %27
  %35 = load ptr, ptr %2, align 8, !tbaa !4
  %36 = icmp ne ptr %35, null
  br i1 %36, label %38, label %37

37:                                               ; preds = %34
  store ptr @.str.5, ptr %2, align 8, !tbaa !4
  br label %38

38:                                               ; preds = %37, %34
  %39 = load ptr, ptr %2, align 8, !tbaa !4
  store ptr %39, ptr %1, align 8
  store i32 1, ptr %4, align 4
  br label %40

40:                                               ; preds = %38, %33
  call void @llvm.lifetime.end.p0(i64 4, ptr %3) #8
  call void @llvm.lifetime.end.p0(i64 8, ptr %2) #8
  %41 = load ptr, ptr %1, align 8
  ret ptr %41
}