; Function Attrs: nofree nounwind memory(read) uwtable
define dso_local ptr @git_editor() local_unnamed_addr #0 {
  %1 = tail call ptr @getenv(ptr noundef nonnull @.str.2) #10
  %2 = tail call ptr @getenv(ptr noundef nonnull @.str) #10
  %.not.i = icmp eq ptr %2, null
  br i1 %.not.i, label %is_terminal_dumb.exit, label %3

3:                                                ; preds = %0
  %4 = tail call i32 @strcmp(ptr noundef nonnull dereferenceable(1) %2, ptr noundef nonnull dereferenceable(5) @.str.1) #11
  %.not2.i = icmp eq i32 %4, 0
  br label %is_terminal_dumb.exit

is_terminal_dumb.exit:                            ; preds = %0, %3
  %5 = phi i1 [ true, %0 ], [ %.not2.i, %3 ]
  %6 = icmp eq ptr %1, null
  %7 = load ptr, ptr @editor_program, align 8
  %8 = icmp ne ptr %7, null
  %or.cond = select i1 %6, i1 %8, i1 false
  %spec.select = select i1 %or.cond, ptr %7, ptr %1
  %9 = icmp ne ptr %spec.select, null
  %or.cond3 = select i1 %9, i1 true, i1 %5
  br i1 %or.cond3, label %12, label %10

10:                                               ; preds = %is_terminal_dumb.exit
  %11 = tail call ptr @getenv(ptr noundef nonnull @.str.3) #10
  br label %12

12:                                               ; preds = %10, %is_terminal_dumb.exit
  %.1 = phi ptr [ %spec.select, %is_terminal_dumb.exit ], [ %11, %10 ]
  %.not = icmp eq ptr %.1, null
  br i1 %.not, label %13, label %15

13:                                               ; preds = %12
  %14 = tail call ptr @getenv(ptr noundef nonnull @.str.4) #10
  br label %15

15:                                               ; preds = %13, %12
  %.2 = phi ptr [ %.1, %12 ], [ %14, %13 ]
  %16 = icmp eq ptr %.2, null
  %spec.store.select = select i1 %5, ptr null, ptr @.str.5
  %.0 = select i1 %16, ptr %spec.store.select, ptr %.2
  ret ptr %.0
}